target datalayout = "e-m:e-p270:32:32-p271:32:32-p272:64:64-i64:64-i128:128-f80:128-n8:16:32:64-S128"
target triple = "x86_64-pc-linux-gnu"

%struct.anon = type { i8 }
%struct.hb_array_t = type { ptr, i32, i32 }
%"struct.hb::shared_ptr" = type { ptr }
%struct.hb_subset_input_t = type { %struct.hb_object_header_t, %union.anon, i32, i8, i8, %struct.hb_hashmap_t, %struct.hb_map_t }
%struct.hb_object_header_t = type { %struct.hb_reference_count_t, %struct.hb_atomic_int_t, %struct.hb_atomic_ptr_t }
%struct.hb_reference_count_t = type { %struct.hb_atomic_int_t }
%struct.hb_atomic_int_t = type { i32 }
%struct.hb_atomic_ptr_t = type { ptr }
%union.anon = type { %"struct.hb_subset_input_t::sets_t" }
%"struct.hb_subset_input_t::sets_t" = type { %"struct.hb::shared_ptr", %"struct.hb::shared_ptr", %"struct.hb::shared_ptr", %"struct.hb::shared_ptr", %"struct.hb::shared_ptr", %"struct.hb::shared_ptr", %"struct.hb::shared_ptr", %"struct.hb::shared_ptr" }
%struct.hb_hashmap_t = type { %struct.hb_object_header_t, i8, i16, i32, i32, i32, i32, ptr }
%struct.hb_map_t = type { %struct.hb_hashmap_t.0 }
%struct.hb_hashmap_t.0 = type { %struct.hb_object_header_t, i8, i16, i32, i32, i32, i32, ptr }
%struct.hb_array_t.2 = type { ptr, i32, i32 }

@__const.hb_subset_input_keep_everything.indices = private unnamed_addr constant [6 x i32] [i32 1, i32 0, i32 4, i32 5, i32 6, i32 7], align 16
@_ZL7hb_iter = internal constant %struct.anon zeroinitializer, align 1
@_hb_CrapPool = external hidden global [80 x i64], align 16
@_hb_NullPool = external hidden constant [80 x i64], align 16

; Function Attrs: mustprogress nounwind uwtable
define linkonce_odr dso_local noundef nonnull align 8 dereferenceable(8) ptr @_ZN4NullIN2hb10shared_ptrI8hb_set_tEEE8get_nullEv() #0 comdat align 2 {
  ret ptr @_hb_NullPool
}

; Function Attrs: mustprogress nounwind uwtable
define linkonce_odr dso_local noundef nonnull align 8 dereferenceable(8) ptr @_ZN10NullHelperIN2hb10shared_ptrI8hb_set_tEEE8get_nullEv() #0 comdat align 2 {
  %1 = call noundef nonnull align 8 dereferenceable(8) ptr @_ZN4NullIN2hb10shared_ptrI8hb_set_tEEE8get_nullEv()
  ret ptr %1
}

; Function Attrs: inlinehint mustprogress nounwind uwtable
define internal noundef nonnull align 8 dereferenceable(8) ptr @_ZL4CrapIN2hb10shared_ptrI8hb_set_tEEERT_v() #1 {
  %1 = alloca ptr, align 8
  call void @llvm.lifetime.start.p0(i64 8, ptr %1) #13
  store ptr @_hb_CrapPool, ptr %1, align 8, !tbaa !27
  %2 = load ptr, ptr %1, align 8, !tbaa !27
  %3 = call noundef nonnull align 8 dereferenceable(8) ptr @_ZN10NullHelperIN2hb10shared_ptrI8hb_set_tEEE8get_nullEv()
  call void @llvm.memcpy.p0.p0.i64(ptr align 1 %2, ptr align 8 %3, i64 8, i1 false)
  %4 = load ptr, ptr %1, align 8, !tbaa !27
  call void @llvm.lifetime.end.p0(i64 8, ptr %1) #13
  ret ptr %4
}

; Function Attrs: mustprogress nounwind uwtable
define linkonce_odr dso_local noundef nonnull align 8 dereferenceable(8) ptr @_ZN10CrapHelperIN2hb10shared_ptrI8hb_set_tEEE8get_crapEv() #0 comdat align 2 {
  %1 = call noundef nonnull align 8 dereferenceable(8) ptr @_ZL4CrapIN2hb10shared_ptrI8hb_set_tEEERT_v()
  ret ptr %1
}

; Function Attrs: mustprogress nounwind uwtable
define linkonce_odr dso_local void @_ZN10hb_array_tIN2hb10shared_ptrI8hb_set_tEEEC2EPS3_j(ptr noundef nonnull align 8 dereferenceable(16) %0, ptr noundef %1, i32 noundef %2) unnamed_addr #0 comdat align 2 {
  %4 = alloca ptr, align 8
  %5 = alloca ptr, align 8
  %6 = alloca i32, align 4
  store ptr %0, ptr %4, align 8, !tbaa !25
  store ptr %1, ptr %5, align 8, !tbaa !27
  store i32 %2, ptr %6, align 4, !tbaa !43
  %7 = load ptr, ptr %4, align 8
  %8 = getelementptr inbounds nuw %struct.hb_array_t, ptr %7, i32 0, i32 0
  %9 = load ptr, ptr %5, align 8, !tbaa !27
  store ptr %9, ptr %8, align 8, !tbaa !36
  %10 = getelementptr inbounds nuw %struct.hb_array_t, ptr %7, i32 0, i32 1
  %11 = load i32, ptr %6, align 4, !tbaa !43
  store i32 %11, ptr %10, align 8, !tbaa !38
  %12 = getelementptr inbounds nuw %struct.hb_array_t, ptr %7, i32 0, i32 2
  store i32 0, ptr %12, align 4, !tbaa !121
  ret void
}

; Function Attrs: mustprogress nounwind uwtable
define linkonce_odr dso_local noundef nonnull align 8 dereferenceable(8) ptr @_ZN16CrapOrNullHelperIN2hb10shared_ptrI8hb_set_tEEE3getEv() #0 comdat align 2 {
  %1 = call noundef nonnull align 8 dereferenceable(8) ptr @_ZN10CrapHelperIN2hb10shared_ptrI8hb_set_tEEE8get_crapEv()
  ret ptr %1
}

; Function Attrs: mustprogress nounwind uwtable
define linkonce_odr dso_local void @_ZN10hb_array_tIN2hb10shared_ptrI8hb_set_tEEEC2ILj8EEERAT__S3_(ptr noundef nonnull align 8 dereferenceable(16) %0, ptr noundef nonnull align 8 dereferenceable(64) %1) unnamed_addr #0 comdat align 2 {
  %3 = alloca ptr, align 8
  %4 = alloca ptr, align 8
  store ptr %0, ptr %3, align 8, !tbaa !25
  store ptr %1, ptr %4, align 8, !tbaa !27
  %5 = load ptr, ptr %3, align 8
  %6 = load ptr, ptr %4, align 8, !tbaa !27
  %7 = getelementptr inbounds [8 x %"struct.hb::shared_ptr"], ptr %6, i64 0, i64 0
  call void @_ZN10hb_array_tIN2hb10shared_ptrI8hb_set_tEEEC2EPS3_j(ptr noundef nonnull align 8 dereferenceable(16) %5, ptr noundef %7, i32 noundef 8)
  ret void
}

; Function Attrs: mustprogress nounwind uwtable
define linkonce_odr dso_local noundef nonnull align 8 dereferenceable(8) ptr @_ZNK10hb_array_tIN2hb10shared_ptrI8hb_set_tEEE11__item_at__Ej(ptr noundef nonnull align 8 dereferenceable(16) %0, i32 noundef %1) #0 comdat align 2 {
  %3 = alloca ptr, align 8
  %4 = alloca ptr, align 8
  %5 = alloca i32, align 4
  store ptr %0, ptr %4, align 8, !tbaa !25
  store i32 %1, ptr %5, align 4, !tbaa !43
  %6 = load ptr, ptr %4, align 8
  %7 = load i32, ptr %5, align 4, !tbaa !43
  %8 = getelementptr inbounds nuw %struct.hb_array_t, ptr %6, i32 0, i32 1
  %9 = load i32, ptr %8, align 8, !tbaa !38
  %10 = icmp uge i32 %7, %9
  %11 = zext i1 %10 to i64
  %12 = call i64 @llvm.expect.i64(i64 %11, i64 0)
  %13 = icmp ne i64 %12, 0
  br i1 %13, label %14, label %16

14:                                               ; preds = %2
  %15 = call noundef nonnull align 8 dereferenceable(8) ptr @_ZN16CrapOrNullHelperIN2hb10shared_ptrI8hb_set_tEEE3getEv()
  store ptr %15, ptr %3, align 8
  br label %22

16:                                               ; preds = %2
  %17 = getelementptr inbounds nuw %struct.hb_array_t, ptr %6, i32 0, i32 0
  %18 = load ptr, ptr %17, align 8, !tbaa !36
  %19 = load i32, ptr %5, align 4, !tbaa !43
  %20 = zext i32 %19 to i64
  %21 = getelementptr inbounds nuw %"struct.hb::shared_ptr", ptr %18, i64 %20
  store ptr %21, ptr %3, align 8
  br label %22

22:                                               ; preds = %16, %14
  %23 = load ptr, ptr %3, align 8
  ret ptr %23
}

; Function Attrs: mustprogress nounwind uwtable
define linkonce_odr dso_local noundef ptr @_ZN9hb_iter_tI10hb_array_tIN2hb10shared_ptrI8hb_set_tEEERS4_E4thizEv(ptr noundef nonnull align 1 dereferenceable(1) %0) #0 comdat align 2 {
  %2 = alloca ptr, align 8
  store ptr %0, ptr %2, align 8, !tbaa !52
  %3 = load ptr, ptr %2, align 8
  ret ptr %3
}

; Function Attrs: inlinehint mustprogress nounwind uwtable
define linkonce_odr dso_local { ptr, i64 } @_Z8hb_arrayIN2hb10shared_ptrI8hb_set_tEELj8EE10hb_array_tIT_ERAT0__S5_(ptr noundef nonnull align 8 dereferenceable(64) %0) #1 comdat {
  %2 = alloca %struct.hb_array_t, align 8
  %3 = alloca ptr, align 8
  store ptr %0, ptr %3, align 8, !tbaa !27
  %4 = load ptr, ptr %3, align 8, !tbaa !27
  call void @_ZN10hb_array_tIN2hb10shared_ptrI8hb_set_tEEEC2ILj8EEERAT__S3_(ptr noundef nonnull align 8 dereferenceable(16) %2, ptr noundef nonnull align 8 dereferenceable(64) %4)
  %5 = load { ptr, i64 }, ptr %2, align 8
  ret { ptr, i64 } %5
}

; Function Attrs: mustprogress nounwind uwtable
define linkonce_odr dso_local noundef ptr @_ZNK2hb10shared_ptrI8hb_set_tEcvPS1_Ev(ptr noundef nonnull align 8 dereferenceable(8) %0) #0 comdat align 2 {
  %2 = alloca ptr, align 8
  store ptr %0, ptr %2, align 8, !tbaa !27
  %3 = load ptr, ptr %2, align 8
  %4 = getelementptr inbounds nuw %"struct.hb::shared_ptr", ptr %3, i32 0, i32 0
  %5 = load ptr, ptr %4, align 8, !tbaa !41
  ret ptr %5
}

; Function Attrs: mustprogress nounwind uwtable
define linkonce_odr dso_local noundef nonnull align 8 dereferenceable(8) ptr @_ZN9hb_iter_tI10hb_array_tIN2hb10shared_ptrI8hb_set_tEEERS4_EixEj(ptr noundef nonnull align 1 dereferenceable(1) %0, i32 noundef %1) #0 comdat align 2 {
  %3 = alloca ptr, align 8
  %4 = alloca i32, align 4
  store ptr %0, ptr %3, align 8, !tbaa !52
  store i32 %1, ptr %4, align 4, !tbaa !43
  %5 = load ptr, ptr %3, align 8
  %6 = call noundef ptr @_ZN9hb_iter_tI10hb_array_tIN2hb10shared_ptrI8hb_set_tEEERS4_E4thizEv(ptr noundef nonnull align 1 dereferenceable(1) %5)
  %7 = load i32, ptr %4, align 4, !tbaa !43
  %8 = call noundef nonnull align 8 dereferenceable(8) ptr @_ZNK10hb_array_tIN2hb10shared_ptrI8hb_set_tEEE11__item_at__Ej(ptr noundef nonnull align 8 dereferenceable(16) %6, i32 noundef %7)
  ret ptr %8
}

; Function Attrs: inlinehint mustprogress nounwind uwtable
define linkonce_odr dso_local { ptr, i64 } @_ZN17hb_subset_input_t9sets_iterEv(ptr noundef nonnull align 8 dereferenceable(184) %0) #1 comdat align 2 {
  %2 = alloca %struct.hb_array_t, align 8
  %3 = alloca ptr, align 8
  store ptr %0, ptr %3, align 8, !tbaa !4
  %4 = load ptr, ptr %3, align 8
  %5 = getelementptr inbounds nuw %struct.hb_subset_input_t, ptr %4, i32 0, i32 1
  %6 = call { ptr, i64 } @_Z8hb_arrayIN2hb10shared_ptrI8hb_set_tEELj8EE10hb_array_tIT_ERAT0__S5_(ptr noundef nonnull align 8 dereferenceable(64) %5)
  %7 = getelementptr inbounds nuw { ptr, i64 }, ptr %2, i32 0, i32 0
  %8 = extractvalue { ptr, i64 } %6, 0
  store ptr %8, ptr %7, align 8
  %9 = getelementptr inbounds nuw { ptr, i64 }, ptr %2, i32 0, i32 1
  %10 = extractvalue { ptr, i64 } %6, 1
  store i64 %10, ptr %9, align 8
  %11 = load { ptr, i64 }, ptr %2, align 8
  ret { ptr, i64 } %11
}

; Function Attrs: mustprogress nounwind uwtable
define linkonce_odr dso_local void @_ZN10hb_array_tIK16hb_subset_sets_tEC2EPS1_j(ptr noundef nonnull align 8 dereferenceable(16) %0, ptr noundef %1, i32 noundef %2) unnamed_addr #0 comdat align 2 {
  %4 = alloca ptr, align 8
  %5 = alloca ptr, align 8
  %6 = alloca i32, align 4
  store ptr %0, ptr %4, align 8, !tbaa !58
  store ptr %1, ptr %5, align 8, !tbaa !56
  store i32 %2, ptr %6, align 4, !tbaa !43
  %7 = load ptr, ptr %4, align 8
  %8 = getelementptr inbounds nuw %struct.hb_array_t.2, ptr %7, i32 0, i32 0
  %9 = load ptr, ptr %5, align 8, !tbaa !56
  store ptr %9, ptr %8, align 8, !tbaa !60
  %10 = getelementptr inbounds nuw %struct.hb_array_t.2, ptr %7, i32 0, i32 1
  %11 = load i32, ptr %6, align 4, !tbaa !43
  store i32 %11, ptr %10, align 8, !tbaa !62
  %12 = getelementptr inbounds nuw %struct.hb_array_t.2, ptr %7, i32 0, i32 2
  store i32 0, ptr %12, align 4, !tbaa !229
  ret void
}

; Function Attrs: mustprogress nounwind uwtable
define dso_local void @hb_subset_input_set_flags(ptr noundef %0, i32 noundef %1) #0 {
  %3 = alloca ptr, align 8
  %4 = alloca i32, align 4
  store ptr %0, ptr %3, align 8, !tbaa !4
  store i32 %1, ptr %4, align 4, !tbaa !43
  %5 = load i32, ptr %4, align 4, !tbaa !43
  %6 = load ptr, ptr %3, align 8, !tbaa !4
  %7 = getelementptr inbounds nuw %struct.hb_subset_input_t, ptr %6, i32 0, i32 2
  store i32 %5, ptr %7, align 8, !tbaa !29
  ret void
}

; Function Attrs: inlinehint mustprogress nounwind uwtable
define internal noundef i32 @_Zor17hb_subset_flags_tS_(i32 noundef %0, i32 noundef %1) #1 {
  %3 = alloca i32, align 4
  %4 = alloca i32, align 4
  store i32 %0, ptr %3, align 4, !tbaa !63
  store i32 %1, ptr %4, align 4, !tbaa !63
  %5 = load i32, ptr %3, align 4, !tbaa !63
  %6 = load i32, ptr %4, align 4, !tbaa !63
  %7 = or i32 %5, %6
  ret i32 %7
}

; Function Attrs: mustprogress nounwind uwtable
define dso_local ptr @hb_subset_input_set(ptr noundef %0, i32 noundef %1) #0 {
  %3 = alloca ptr, align 8
  %4 = alloca i32, align 4
  %5 = alloca %struct.hb_array_t, align 8
  store ptr %0, ptr %3, align 8, !tbaa !4
  store i32 %1, ptr %4, align 4, !tbaa !50
  call void @llvm.lifetime.start.p0(i64 16, ptr %5) #13
  %6 = load ptr, ptr %3, align 8, !tbaa !4
  %7 = call { ptr, i64 } @_ZN17hb_subset_input_t9sets_iterEv(ptr noundef nonnull align 8 dereferenceable(184) %6)
  %8 = getelementptr inbounds nuw { ptr, i64 }, ptr %5, i32 0, i32 0
  %9 = extractvalue { ptr, i64 } %7, 0
  store ptr %9, ptr %8, align 8
  %10 = getelementptr inbounds nuw { ptr, i64 }, ptr %5, i32 0, i32 1
  %11 = extractvalue { ptr, i64 } %7, 1
  store i64 %11, ptr %10, align 8
  %12 = load i32, ptr %4, align 4, !tbaa !50
  %13 = call noundef nonnull align 8 dereferenceable(8) ptr @_ZN9hb_iter_tI10hb_array_tIN2hb10shared_ptrI8hb_set_tEEERS4_EixEj(ptr noundef nonnull align 1 dereferenceable(1) %5, i32 noundef %12)
  %14 = call noundef ptr @_ZNK2hb10shared_ptrI8hb_set_tEcvPS1_Ev(ptr noundef nonnull align 8 dereferenceable(8) %13)
  call void @llvm.lifetime.end.p0(i64 16, ptr %5) #13
  ret ptr %14
}

; Function Attrs: mustprogress nounwind uwtable
define linkonce_odr dso_local noundef ptr @_ZNK10hb_array_tIK16hb_subset_sets_tE3endEv(ptr noundef nonnull align 8 dereferenceable(16) %0) #0 comdat align 2 {
  %2 = alloca ptr, align 8
  store ptr %0, ptr %2, align 8, !tbaa !58
  %3 = load ptr, ptr %2, align 8
  %4 = getelementptr inbounds nuw %struct.hb_array_t.2, ptr %3, i32 0, i32 0
  %5 = load ptr, ptr %4, align 8, !tbaa !60
  %6 = getelementptr inbounds nuw %struct.hb_array_t.2, ptr %3, i32 0, i32 1
  %7 = load i32, ptr %6, align 8, !tbaa !62
  %8 = zext i32 %7 to i64
  %9 = getelementptr inbounds nuw i32, ptr %5, i64 %8
  ret ptr %9
}

; Function Attrs: mustprogress nounwind uwtable
define linkonce_odr dso_local noundef ptr @_ZNK10hb_array_tIK16hb_subset_sets_tE5beginEv(ptr noundef nonnull align 8 dereferenceable(16) %0) #0 comdat align 2 {
  %2 = alloca ptr, align 8
  store ptr %0, ptr %2, align 8, !tbaa !58
  %3 = load ptr, ptr %2, align 8
  %4 = getelementptr inbounds nuw %struct.hb_array_t.2, ptr %3, i32 0, i32 0
  %5 = load ptr, ptr %4, align 8, !tbaa !60
  ret ptr %5
}

; Function Attrs: mustprogress nounwind uwtable
define internal { ptr, i64 } @"_ZNK3$_6clIK16hb_subset_sets_tLj6EEE10hb_array_tIT_ERAT0__S4_"(ptr noundef nonnull align 1 dereferenceable(1) %0, ptr noundef nonnull align 4 dereferenceable(24) %1) #0 align 2 {
  %3 = alloca %struct.hb_array_t.2, align 8
  %4 = alloca ptr, align 8
  %5 = alloca ptr, align 8
  store ptr %0, ptr %4, align 8, !tbaa !56
  store ptr %1, ptr %5, align 8, !tbaa !56
  %6 = load ptr, ptr %5, align 8, !tbaa !56
  %7 = getelementptr inbounds [6 x i32], ptr %6, i64 0, i64 0
  call void @_ZN10hb_array_tIK16hb_subset_sets_tEC2EPS1_j(ptr noundef nonnull align 8 dereferenceable(16) %3, ptr noundef %7, i32 noundef 6)
  %8 = load { ptr, i64 }, ptr %3, align 8
  ret { ptr, i64 } %8
}

; Function Attrs: mustprogress nounwind uwtable
define dso_local void @hb_subset_input_keep_everything(ptr noundef %0) #0 {
  %2 = alloca ptr, align 8
  %3 = alloca [6 x i32], align 16
  %4 = alloca ptr, align 8
  %5 = alloca %struct.hb_array_t.2, align 8
  %6 = alloca ptr, align 8
  %7 = alloca ptr, align 8
  %8 = alloca i32, align 4
  %9 = alloca ptr, align 8
  store ptr %0, ptr %2, align 8, !tbaa !4
  call void @llvm.lifetime.start.p0(i64 24, ptr %3) #13
  call void @llvm.memcpy.p0.p0.i64(ptr align 16 %3, ptr align 16 @__const.hb_subset_input_keep_everything.indices, i64 24, i1 false)
  call void @llvm.lifetime.start.p0(i64 8, ptr %4) #13
  call void @llvm.lifetime.start.p0(i64 16, ptr %5) #13
  %10 = call { ptr, i64 } @"_ZNK3$_6clIK16hb_subset_sets_tLj6EEE10hb_array_tIT_ERAT0__S4_"(ptr noundef nonnull align 1 dereferenceable(1) @_ZL7hb_iter, ptr noundef nonnull align 4 dereferenceable(24) %3)
  %11 = getelementptr inbounds nuw { ptr, i64 }, ptr %5, i32 0, i32 0
  %12 = extractvalue { ptr, i64 } %10, 0
  store ptr %12, ptr %11, align 8
  %13 = getelementptr inbounds nuw { ptr, i64 }, ptr %5, i32 0, i32 1
  %14 = extractvalue { ptr, i64 } %10, 1
  store i64 %14, ptr %13, align 8
  store ptr %5, ptr %4, align 8, !tbaa !58
  call void @llvm.lifetime.start.p0(i64 8, ptr %6) #13
  %15 = load ptr, ptr %4, align 8, !tbaa !58
  %16 = call noundef ptr @_ZNK10hb_array_tIK16hb_subset_sets_tE5beginEv(ptr noundef nonnull align 8 dereferenceable(16) %15)
  store ptr %16, ptr %6, align 8, !tbaa !56
  call void @llvm.lifetime.start.p0(i64 8, ptr %7) #13
  %17 = load ptr, ptr %4, align 8, !tbaa !58
  %18 = call noundef ptr @_ZNK10hb_array_tIK16hb_subset_sets_tE3endEv(ptr noundef nonnull align 8 dereferenceable(16) %17)
  store ptr %18, ptr %7, align 8, !tbaa !56
  br label %19

19:                                               ; preds = %32, %1
  %20 = load ptr, ptr %6, align 8, !tbaa !56
  %21 = load ptr, ptr %7, align 8, !tbaa !56
  %22 = icmp ne ptr %20, %21
  br i1 %22, label %24, label %23

23:                                               ; preds = %19
  call void @llvm.lifetime.end.p0(i64 8, ptr %7) #13
  call void @llvm.lifetime.end.p0(i64 8, ptr %6) #13
  call void @llvm.lifetime.end.p0(i64 16, ptr %5) #13
  call void @llvm.lifetime.end.p0(i64 8, ptr %4) #13
  br label %35

24:                                               ; preds = %19
  call void @llvm.lifetime.start.p0(i64 4, ptr %8) #13
  %25 = load ptr, ptr %6, align 8, !tbaa !56
  %26 = load i32, ptr %25, align 4, !tbaa !50
  store i32 %26, ptr %8, align 4, !tbaa !50
  call void @llvm.lifetime.start.p0(i64 8, ptr %9) #13
  %27 = load ptr, ptr %2, align 8, !tbaa !4
  %28 = load i32, ptr %8, align 4, !tbaa !50
  %29 = call ptr @hb_subset_input_set(ptr noundef %27, i32 noundef %28)
  store ptr %29, ptr %9, align 8, !tbaa !39
  %30 = load ptr, ptr %9, align 8, !tbaa !39
  call void @hb_set_clear(ptr noundef %30)
  %31 = load ptr, ptr %9, align 8, !tbaa !39
  call void @hb_set_invert(ptr noundef %31)
  call void @llvm.lifetime.end.p0(i64 8, ptr %9) #13
  call void @llvm.lifetime.end.p0(i64 4, ptr %8) #13
  br label %32

32:                                               ; preds = %24
  %33 = load ptr, ptr %6, align 8, !tbaa !56
  %34 = getelementptr inbounds nuw i32, ptr %33, i32 1
  store ptr %34, ptr %6, align 8, !tbaa !56
  br label %19

35:                                               ; preds = %23
  %36 = load ptr, ptr %2, align 8, !tbaa !4
  %37 = call ptr @hb_subset_input_set(ptr noundef %36, i32 noundef 3)
  call void @hb_set_clear(ptr noundef %37)
  %38 = load ptr, ptr %2, align 8, !tbaa !4
  %39 = call noundef i32 @_Zor17hb_subset_flags_tS_(i32 noundef 64, i32 noundef 128)
  %40 = call noundef i32 @_Zor17hb_subset_flags_tS_(i32 noundef %39, i32 noundef 8)
  %41 = call noundef i32 @_Zor17hb_subset_flags_tS_(i32 noundef %40, i32 noundef 256)
  %42 = call noundef i32 @_Zor17hb_subset_flags_tS_(i32 noundef %41, i32 noundef 32)
  call void @hb_subset_input_set_flags(ptr noundef %38, i32 noundef %42)
  call void @llvm.lifetime.end.p0(i64 24, ptr %3) #13
  ret void
}