; Function Attrs: mustprogress nounwind uwtable
define dso_local void @hb_subset_input_keep_everything(ptr noundef captures(none) %0) local_unnamed_addr #0 {
  %2 = load i64, ptr @_hb_NullPool, align 16
  %3 = inttoptr i64 %2 to ptr
  %4 = getelementptr inbounds nuw i8, ptr %0, i64 16
  br label %8

5:                                                ; preds = %hb_subset_input_set.exit
  %6 = getelementptr inbounds nuw i8, ptr %0, i64 40
  %.pre.i = load ptr, ptr %6, align 8, !tbaa !29
  tail call void @hb_set_clear(ptr noundef %.pre.i) #21
  %7 = getelementptr inbounds nuw i8, ptr %0, i64 80
  store i32 488, ptr %7, align 8, !tbaa !41
  ret void

8:                                                ; preds = %1, %hb_subset_input_set.exit
  %.0.idx13 = phi i64 [ 0, %1 ], [ %.0.add, %hb_subset_input_set.exit ]
  %.0.ptr = getelementptr inbounds nuw i8, ptr @__const.hb_subset_input_keep_everything.indices, i64 %.0.idx13
  %9 = load i32, ptr %.0.ptr, align 4, !tbaa !69
  %.not.i.i.i = icmp ult i32 %9, 8
  br i1 %.not.i.i.i, label %11, label %10, !prof !40

10:                                               ; preds = %8
  store i64 %2, ptr @_hb_CrapPool, align 16
  br label %hb_subset_input_set.exit

11:                                               ; preds = %8
  %12 = zext nneg i32 %9 to i64
  %13 = getelementptr inbounds nuw %"struct.hb::shared_ptr", ptr %4, i64 %12
  %.pre.i11 = load ptr, ptr %13, align 8, !tbaa !29
  br label %hb_subset_input_set.exit

hb_subset_input_set.exit:                         ; preds = %10, %11
  %14 = phi ptr [ %3, %10 ], [ %.pre.i11, %11 ]
  tail call void @hb_set_clear(ptr noundef %14) #21
  tail call void @hb_set_invert(ptr noundef %14) #21
  %.0.add = add nuw nsw i64 %.0.idx13, 4
  %.not = icmp eq i64 %.0.add, 24
  br i1 %.not, label %5, label %8
}